Certificate:
    Data:
        Version: 3 (0x2)
        Serial Number:
            94:67:99:ff:b7:86:eb:6b:be:96:44:2b:f3:2a:e2:a9
        Signature Algorithm: sha256WithRSAEncryption
        Issuer: CN=Easy-RSA CA
        Validity
            Not Before: Oct 19 07:10:16 2023 GMT
            Not After : Oct 16 07:10:16 2033 GMT
        Subject: CN=server
        Subject Public Key Info:
            Public Key Algorithm: rsaEncryption
                Public-Key: (2048 bit)
                Modulus:
                    00:c9:66:e2:85:30:ef:16:40:67:9c:1d:21:c8:92:
                    be:3f:cf:15:e8:fb:a6:4d:d7:8a:23:1b:88:0a:e1:
                    46:8c:b0:32:2d:fe:b2:d3:3a:e7:6e:af:e4:0d:58:
                    c7:ad:a1:30:a4:8b:31:55:3e:02:28:47:fa:85:14:
                    02:4c:f6:9b:ce:24:83:80:1b:ff:b3:1e:d1:52:6c:
                    58:cc:58:4c:9f:c6:2e:60:53:f5:de:64:9b:a6:e5:
                    5e:02:fd:73:4f:31:59:7a:fb:13:26:d8:c2:18:4d:
                    14:af:cc:c5:2a:92:8e:40:a8:cf:5a:25:43:89:f9:
                    3e:b4:f8:f5:e0:b2:cd:2c:f8:1d:05:b0:0f:dc:f8:
                    6a:84:eb:64:4e:22:ac:06:f3:c8:ec:46:01:cf:77:
                    bd:61:24:d8:29:93:ab:d7:cd:18:c4:df:68:a9:58:
                    79:8c:29:93:62:4e:9d:8d:88:e3:66:e0:20:eb:5e:
                    83:b0:eb:d0:32:98:b3:c6:e6:d0:83:81:82:59:d9:
                    50:75:8e:dd:f0:92:f2:e1:13:0f:e2:25:55:19:6e:
                    31:19:14:64:61:35:ee:31:69:9a:a8:17:7b:9e:2c:
                    ba:99:4b:7f:93:ec:59:83:4e:ec:a6:67:8e:59:23:
                    63:9f:95:a5:12:a6:e9:2e:08:84:d5:31:d7:aa:6c:
                    e6:9b
                Exponent: 65537 (0x10001)
        X509v3 extensions:
            X509v3 Basic Constraints: 
                CA:FALSE
            X509v3 Subject Key Identifier: 
                3C:C3:98:84:73:9F:90:B5:90:E9:E7:08:23:9B:48:AF:FD:88:EC:01
            X509v3 Authority Key Identifier: 
                keyid:CD:18:1C:C3:C3:D1:B4:9E:C4:E4:87:3E:B4:E5:FE:52:E6:D1:F8:C1
                DirName:/CN=Easy-RSA CA
                serial:6A:55:00:6B:1B:0F:24:CD:AD:D7:9C:A3:38:0E:FD:74:FE:7F:E2:A7
            X509v3 Extended Key Usage: 
                TLS Web Server Authentication
            X509v3 Key Usage: 
                Digital Signature, Key Encipherment
            X509v3 Subject Alternative Name: 
                DNS:server
    Signature Algorithm: sha256WithRSAEncryption
    Signature Value:
        14:95:8a:3a:93:f0:66:d5:6b:5e:68:c0:bb:91:30:e8:73:7c:
        9a:3d:ee:d9:40:66:86:4d:81:7d:57:b6:d8:b4:9a:ca:7e:fe:
        d3:3a:f3:e4:17:99:92:f5:11:4d:1f:e7:78:ed:d1:ab:e8:1c:
        61:65:b4:4b:ad:93:54:f6:11:48:9d:71:93:d4:2d:1d:13:f6:
        9d:01:dd:5b:0d:81:0d:92:c0:c5:d5:fd:15:d0:0a:0b:87:b5:
        87:7d:5e:d8:dd:65:90:eb:7b:5b:9d:07:6a:65:e3:f1:86:90:
        55:ef:85:38:dc:c1:d5:bb:75:32:d2:0e:e2:ee:58:8d:c3:61:
        ce:e0:29:dd:87:68:c0:66:0f:25:64:c4:be:7c:c8:62:69:83:
        e6:ab:08:98:ab:c6:e2:71:bf:62:61:bb:89:28:96:d4:ee:11:
        63:5b:51:25:95:40:ec:1e:65:e0:8a:e7:4f:0d:b7:5e:c1:9c:
        d7:d4:1e:cb:d3:29:12:31:09:6a:f5:b0:ba:7f:d7:60:12:52:
        08:a5:2d:b7:85:2a:86:0b:91:6d:fd:0f:fa:df:06:03:c8:bf:
        0b:a5:7a:52:0e:90:c8:1a:08:54:5d:5a:d1:93:a4:d8:2a:1b:
        98:cb:d2:2c:df:cd:18:af:46:dd:00:d1:4e:c5:4d:04:4b:e1:
        06:31:19:89
-----BEGIN CERTIFICATE-----
MIIDaDCCAlCgAwIBAgIRAJRnmf+3hutrvpZEK/Mq4qkwDQYJKoZIhvcNAQELBQAw
FjEUMBIGA1UEAwwLRWFzeS1SU0EgQ0EwHhcNMjMxMDE5MDcxMDE2WhcNMzMxMDE2
MDcxMDE2WjARMQ8wDQYDVQQDDAZzZXJ2ZXIwggEiMA0GCSqGSIb3DQEBAQUAA4IB
DwAwggEKAoIBAQDJZuKFMO8WQGecHSHIkr4/zxXo+6ZN14ojG4gK4UaMsDIt/rLT
Oudur+QNWMetoTCkizFVPgIoR/qFFAJM9pvOJIOAG/+zHtFSbFjMWEyfxi5gU/Xe
ZJum5V4C/XNPMVl6+xMm2MIYTRSvzMUqko5AqM9aJUOJ+T60+PXgss0s+B0FsA/c
+GqE62ROIqwG88jsRgHPd71hJNgpk6vXzRjE32ipWHmMKZNiTp2NiONm4CDrXoOw
69AymLPG5tCDgYJZ2VB1jt3wkvLhEw/iJVUZbjEZFGRhNe4xaZqoF3ueLLqZS3+T
7FmDTuymZ45ZI2OflaUSpukuCITVMdeqbOabAgMBAAGjgbUwgbIwCQYDVR0TBAIw
ADAdBgNVHQ4EFgQUPMOYhHOfkLWQ6ecII5tIr/2I7AEwUQYDVR0jBEowSIAUzRgc
w8PRtJ7E5Ic+tOX+UubR+MGhGqQYMBYxFDASBgNVBAMMC0Vhc3ktUlNBIENBghRq
VQBrGw8kza3XnKM4Dv10/n/ipzATBgNVHSUEDDAKBggrBgEFBQcDATALBgNVHQ8E
BAMCBaAwEQYDVR0RBAowCIIGc2VydmVyMA0GCSqGSIb3DQEBCwUAA4IBAQAUlYo6
k/Bm1WteaMC7kTDoc3yaPe7ZQGaGTYF9V7bYtJrKfv7TOvPkF5mS9RFNH+d47dGr
6BxhZbRLrZNU9hFInXGT1C0dE/adAd1bDYENksDF1f0V0AoLh7WHfV7Y3WWQ63tb
nQdqZePxhpBV74U43MHVu3Uy0g7i7liNw2HO4Cndh2jAZg8lZMS+fMhiaYPmqwiY
q8bicb9iYbuJKJbU7hFjW1EllUDsHmXgiudPDbdewZzX1B7L0ykSMQlq9bC6f9dg
ElIIpS23hSqGC5Ft/Q/63wYDyL8LpXpSDpDIGghUXVrRk6TYKhuYy9Is380Yr0bd
ANFOxU0ES+EGMRmJ
-----END CERTIFICATE-----
